target datalayout = "e-m:e-p270:32:32-p271:32:32-p272:64:64-i64:64-i128:128-f80:128-n8:16:32:64-S128"
target triple = "x86_64-pc-linux-gnu"

%struct.RBasic = type { i64, i64 }
%union.anon.15 = type { double }
%struct.RFloat = type { %struct.RBasic, double }

@rb_eFloatDomainError = external global i64, align 8
@.str.4 = private unnamed_addr constant [9 x i8] c"Infinity\00", align 1

; Function Attrs: inlinehint nounwind sspstrong uwtable
define internal i64 @RUBY_BIT_ROTR(i64 noundef %0, i32 noundef %1) #3 {
  %3 = alloca i64, align 8
  %4 = alloca i32, align 4
  store i64 %0, ptr %3, align 8, !tbaa !7
  store i32 %1, ptr %4, align 4, !tbaa !14
  %5 = load i64, ptr %3, align 8, !tbaa !7
  %6 = load i32, ptr %4, align 4, !tbaa !14
  %7 = sext i32 %6 to i64
  %8 = call i64 @llvm.fshr.i64(i64 %5, i64 %5, i64 %7)
  ret i64 %8
}

; Function Attrs: inlinehint nounwind sspstrong uwtable
define internal double @rb_float_noflonum_value(i64 noundef %0) #3 {
  %2 = alloca i64, align 8
  store i64 %0, ptr %2, align 8, !tbaa !7
  %3 = load i64, ptr %2, align 8, !tbaa !7
  %4 = inttoptr i64 %3 to ptr
  %5 = getelementptr inbounds nuw %struct.RFloat, ptr %4, i32 0, i32 1
  %6 = load double, ptr %5, align 8, !tbaa !44
  ret double %6
}

; Function Attrs: inlinehint nounwind sspstrong uwtable
define internal double @rb_float_flonum_value(i64 noundef %0) #3 {
  %2 = alloca double, align 8
  %3 = alloca i64, align 8
  %4 = alloca %union.anon.15, align 8
  %5 = alloca i64, align 8
  store i64 %0, ptr %3, align 8, !tbaa !7
  %6 = load i64, ptr %3, align 8, !tbaa !7
  %7 = icmp ne i64 %6, -9223372036854775806
  br i1 %7, label %8, label %18

8:                                                ; preds = %1
  call void @llvm.lifetime.start.p0(i64 8, ptr %4) #21
  call void @llvm.lifetime.start.p0(i64 8, ptr %5) #21
  %9 = load i64, ptr %3, align 8, !tbaa !7
  %10 = lshr i64 %9, 63
  store i64 %10, ptr %5, align 8, !tbaa !7
  %11 = load i64, ptr %5, align 8, !tbaa !7
  %12 = sub i64 2, %11
  %13 = load i64, ptr %3, align 8, !tbaa !7
  %14 = and i64 %13, -4
  %15 = or i64 %12, %14
  %16 = call i64 @RUBY_BIT_ROTR(i64 noundef %15, i32 noundef 3)
  store i64 %16, ptr %4, align 8, !tbaa !11
  %17 = load double, ptr %4, align 8, !tbaa !11
  store double %17, ptr %2, align 8
  call void @llvm.lifetime.end.p0(i64 8, ptr %5) #21
  call void @llvm.lifetime.end.p0(i64 8, ptr %4) #21
  br label %19

18:                                               ; preds = %1
  store double 0.000000e+00, ptr %2, align 8
  br label %19

19:                                               ; preds = %18, %8
  %20 = load double, ptr %2, align 8
  ret double %20
}

; Function Attrs: inlinehint nounwind sspstrong willreturn memory(none) uwtable
define internal zeroext i1 @RB_IMMEDIATE_P(i64 noundef %0) #8 {
  %2 = alloca i64, align 8
  store i64 %0, ptr %2, align 8, !tbaa !7
  %3 = load i64, ptr %2, align 8, !tbaa !7
  %4 = and i64 %3, 7
  %5 = icmp ne i64 %4, 0
  ret i1 %5
}

; Function Attrs: inlinehint nounwind sspstrong uwtable
define internal double @rb_float_value_inline(i64 noundef %0) #3 {
  %2 = alloca double, align 8
  %3 = alloca i64, align 8
  store i64 %0, ptr %3, align 8, !tbaa !7
  %4 = load i64, ptr %3, align 8, !tbaa !7
  %5 = call zeroext i1 @RB_FLONUM_P(i64 noundef %4) #23
  br i1 %5, label %6, label %9

6:                                                ; preds = %1
  %7 = load i64, ptr %3, align 8, !tbaa !7
  %8 = call double @rb_float_flonum_value(i64 noundef %7)
  store double %8, ptr %2, align 8
  br label %12

9:                                                ; preds = %1
  %10 = load i64, ptr %3, align 8, !tbaa !7
  %11 = call double @rb_float_noflonum_value(i64 noundef %10)
  store double %11, ptr %2, align 8
  br label %12

12:                                               ; preds = %9, %6
  %13 = load double, ptr %2, align 8
  ret double %13
}

; Function Attrs: inlinehint nounwind sspstrong willreturn memory(read) uwtable
define internal i32 @RB_BUILTIN_TYPE(i64 noundef %0) #5 {
  %2 = alloca i64, align 8
  %3 = alloca i64, align 8
  store i64 %0, ptr %2, align 8, !tbaa !7
  call void @llvm.lifetime.start.p0(i64 8, ptr %3) #21
  %4 = load i64, ptr %2, align 8, !tbaa !7
  %5 = inttoptr i64 %4 to ptr
  %6 = getelementptr inbounds nuw %struct.RBasic, ptr %5, i32 0, i32 0
  %7 = load i64, ptr %6, align 8, !tbaa !12
  %8 = and i64 %7, 31
  store i64 %8, ptr %3, align 8, !tbaa !7
  %9 = load i64, ptr %3, align 8, !tbaa !7
  %10 = trunc i64 %9 to i32
  call void @llvm.lifetime.end.p0(i64 8, ptr %3) #21
  ret i32 %10
}

; Function Attrs: inlinehint nounwind sspstrong willreturn memory(none) uwtable
define internal zeroext i1 @RB_SPECIAL_CONST_P(i64 noundef %0) #8 {
  %2 = alloca i64, align 8
  store i64 %0, ptr %2, align 8, !tbaa !7
  %3 = load i64, ptr %2, align 8, !tbaa !7
  %4 = icmp eq i64 %3, 0
  br i1 %4, label %8, label %5

5:                                                ; preds = %1
  %6 = load i64, ptr %2, align 8, !tbaa !7
  %7 = call zeroext i1 @RB_IMMEDIATE_P(i64 noundef %6) #23
  br label %8

8:                                                ; preds = %5, %1
  %9 = phi i1 [ true, %1 ], [ %7, %5 ]
  ret i1 %9
}

; Function Attrs: inlinehint nounwind sspstrong willreturn memory(none) uwtable
define internal zeroext i1 @RB_FLONUM_P(i64 noundef %0) #8 {
  %2 = alloca i64, align 8
  store i64 %0, ptr %2, align 8, !tbaa !7
  %3 = load i64, ptr %2, align 8, !tbaa !7
  %4 = and i64 %3, 3
  %5 = icmp eq i64 %4, 2
  ret i1 %5
}

; Function Attrs: inlinehint nounwind sspstrong uwtable
define internal zeroext i1 @FLOAT_ZERO_P(i64 noundef %0) #3 {
  %2 = alloca i64, align 8
  store i64 %0, ptr %2, align 8, !tbaa !7
  %3 = load i64, ptr %2, align 8, !tbaa !7
  %4 = call double @rb_float_value_inline(i64 noundef %3)
  %5 = fcmp oeq double %4, 0.000000e+00
  ret i1 %5
}

; Function Attrs: inlinehint nounwind sspstrong willreturn memory(read) uwtable
define internal zeroext i1 @RB_FLOAT_TYPE_P(i64 noundef %0) #5 {
  %2 = alloca i1, align 1
  %3 = alloca i64, align 8
  store i64 %0, ptr %3, align 8, !tbaa !7
  %4 = load i64, ptr %3, align 8, !tbaa !7
  %5 = call zeroext i1 @RB_FLONUM_P(i64 noundef %4) #23
  br i1 %5, label %6, label %7

6:                                                ; preds = %1
  store i1 true, ptr %2, align 1
  br label %15

7:                                                ; preds = %1
  %8 = load i64, ptr %3, align 8, !tbaa !7
  %9 = call zeroext i1 @RB_SPECIAL_CONST_P(i64 noundef %8) #23
  br i1 %9, label %10, label %11

10:                                               ; preds = %7
  store i1 false, ptr %2, align 1
  br label %15

11:                                               ; preds = %7
  %12 = load i64, ptr %3, align 8, !tbaa !7
  %13 = call i32 @RB_BUILTIN_TYPE(i64 noundef %12) #22
  %14 = icmp eq i32 %13, 4
  store i1 %14, ptr %2, align 1
  br label %15

15:                                               ; preds = %11, %10, %6
  %16 = load i1, ptr %2, align 1
  ret i1 %16
}

; Function Attrs: nounwind sspstrong uwtable
define hidden i64 @rb_cstr_to_rat(ptr noundef %0, i32 noundef %1) #0 {
  %3 = alloca ptr, align 8
  %4 = alloca i32, align 4
  %5 = alloca i64, align 8
  store ptr %0, ptr %3, align 8, !tbaa !36
  store i32 %1, ptr %4, align 4, !tbaa !14
  call void @llvm.lifetime.start.p0(i64 8, ptr %5) #21
  %6 = load ptr, ptr %3, align 8, !tbaa !36
  %7 = load ptr, ptr %3, align 8, !tbaa !36
  %8 = load ptr, ptr %3, align 8, !tbaa !36
  %9 = call i64 @strlen(ptr noundef %8) #22
  %10 = getelementptr i8, ptr %7, i64 %9
  %11 = load i32, ptr %4, align 4, !tbaa !14
  %12 = call i64 @parse_rat(ptr noundef %6, ptr noundef %10, i32 noundef %11, i32 noundef 1)
  store i64 %12, ptr %5, align 8, !tbaa !7
  %13 = load i64, ptr %5, align 8, !tbaa !7
  %14 = call zeroext i1 @RB_FLOAT_TYPE_P(i64 noundef %13) #22
  br i1 %14, label %15, label %20

15:                                               ; preds = %2
  %16 = load i64, ptr %5, align 8, !tbaa !7
  %17 = call zeroext i1 @FLOAT_ZERO_P(i64 noundef %16)
  br i1 %17, label %20, label %18

18:                                               ; preds = %15
  %19 = load i64, ptr @rb_eFloatDomainError, align 8, !tbaa !7
  call void (i64, ptr, ...) @rb_raise(i64 noundef %19, ptr noundef @.str.4) #25
  unreachable

20:                                               ; preds = %15, %2
  %21 = load i64, ptr %5, align 8, !tbaa !7
  call void @llvm.lifetime.end.p0(i64 8, ptr %5) #21
  ret i64 %21
}