; Function Attrs: nounwind sspstrong uwtable
define hidden i64 @rb_cstr_to_rat(ptr noundef %0, i32 noundef %1) local_unnamed_addr #0 {
  %3 = tail call i64 @strlen(ptr noundef nonnull dereferenceable(1) %0) #18
  %4 = getelementptr i8, ptr %0, i64 %3
  %5 = tail call fastcc i64 @parse_rat(ptr noundef nonnull %0, ptr noundef %4, i32 noundef %1, i32 noundef 1)
  %6 = and i64 %5, 3
  %7 = icmp eq i64 %6, 2
  br i1 %7, label %17, label %8

8:                                                ; preds = %2
  %9 = icmp eq i64 %5, 0
  %10 = and i64 %5, 7
  %11 = icmp ne i64 %10, 0
  %12 = or i1 %9, %11
  br i1 %12, label %RB_FLOAT_TYPE_P.exit.thread7, label %RB_FLOAT_TYPE_P.exit

RB_FLOAT_TYPE_P.exit:                             ; preds = %8
  %13 = inttoptr i64 %5 to ptr
  %14 = load i64, ptr %13, align 8, !tbaa !7
  %15 = and i64 %14, 31
  %16 = icmp eq i64 %15, 4
  br i1 %16, label %24, label %RB_FLOAT_TYPE_P.exit.thread7

17:                                               ; preds = %2
  %.not.i.i.i = icmp eq i64 %5, -9223372036854775806
  br i1 %.not.i.i.i, label %RB_FLOAT_TYPE_P.exit.thread7, label %18

18:                                               ; preds = %17
  %.neg.i.i.i = ashr i64 %5, 63
  %19 = add nsw i64 %.neg.i.i.i, 2
  %20 = and i64 %5, -4
  %21 = or i64 %19, %20
  %22 = tail call noundef i64 @llvm.fshl.i64(i64 range(i64 1, 0) %21, i64 range(i64 1, 0) %21, i64 61)
  %23 = bitcast i64 %22 to double
  br label %FLOAT_ZERO_P.exit

24:                                               ; preds = %RB_FLOAT_TYPE_P.exit
  %25 = getelementptr inbounds nuw i8, ptr %13, i64 16
  %26 = load double, ptr %25, align 8, !tbaa !22
  br label %FLOAT_ZERO_P.exit

FLOAT_ZERO_P.exit:                                ; preds = %18, %24
  %.0.i.i = phi double [ %26, %24 ], [ %23, %18 ]
  %27 = fcmp oeq double %.0.i.i, 0.000000e+00
  br i1 %27, label %RB_FLOAT_TYPE_P.exit.thread7, label %28

28:                                               ; preds = %FLOAT_ZERO_P.exit
  %29 = load i64, ptr @rb_eFloatDomainError, align 8, !tbaa !18
  tail call void (i64, ptr, ...) @rb_raise(i64 noundef %29, ptr noundef nonnull @.str.4) #20
  unreachable

RB_FLOAT_TYPE_P.exit.thread7:                     ; preds = %17, %8, %FLOAT_ZERO_P.exit, %RB_FLOAT_TYPE_P.exit
  ret i64 %5
}